target datalayout = "e-m:e-p270:32:32-p271:32:32-p272:64:64-i64:64-i128:128-f80:128-n8:16:32:64-S128"
target triple = "x86_64-pc-linux-gnu"

%"class.llvm::StringRef" = type { ptr, i64 }
%"class.llvm::ArrayRef.75" = type { ptr, i64 }
%"class.llvm::SmallVectorImpl.213" = type { %"class.llvm::SmallVectorTemplateBase.214" }
%"class.llvm::SmallVectorTemplateBase.214" = type { %"class.llvm::SmallVectorTemplateCommon.215" }
%"class.llvm::SmallVectorTemplateCommon.215" = type { %"class.llvm::SmallVectorBase.216" }
%"class.llvm::SmallVectorBase.216" = type { ptr, i64, i64 }
%"class.llvm::lto::InputFile" = type { %"class.std::vector.207", %"class.llvm::SmallVector.212", %"class.std::vector.218", %"class.std::vector.223", %"class.llvm::StringRef", %"class.llvm::StringRef", %"class.llvm::StringRef", %"class.std::vector.228", %"class.std::vector.233" }
%"class.std::vector.207" = type { %"struct.std::_Vector_base.208" }
%"struct.std::_Vector_base.208" = type { %"struct.std::_Vector_base<llvm::BitcodeModule, std::allocator<llvm::BitcodeModule>>::_Vector_impl" }
%"struct.std::_Vector_base<llvm::BitcodeModule, std::allocator<llvm::BitcodeModule>>::_Vector_impl" = type { %"struct.std::_Vector_base<llvm::BitcodeModule, std::allocator<llvm::BitcodeModule>>::_Vector_impl_data" }
%"struct.std::_Vector_base<llvm::BitcodeModule, std::allocator<llvm::BitcodeModule>>::_Vector_impl_data" = type { ptr, ptr, ptr }
%"class.llvm::SmallVector.212" = type { %"class.llvm::SmallVectorImpl.213" }
%"class.std::vector.218" = type { %"struct.std::_Vector_base.219" }
%"struct.std::_Vector_base.219" = type { %"struct.std::_Vector_base<llvm::lto::InputFile::Symbol, std::allocator<llvm::lto::InputFile::Symbol>>::_Vector_impl" }
%"struct.std::_Vector_base<llvm::lto::InputFile::Symbol, std::allocator<llvm::lto::InputFile::Symbol>>::_Vector_impl" = type { %"struct.std::_Vector_base<llvm::lto::InputFile::Symbol, std::allocator<llvm::lto::InputFile::Symbol>>::_Vector_impl_data" }
%"struct.std::_Vector_base<llvm::lto::InputFile::Symbol, std::allocator<llvm::lto::InputFile::Symbol>>::_Vector_impl_data" = type { ptr, ptr, ptr }
%"class.std::vector.223" = type { %"struct.std::_Vector_base.224" }
%"struct.std::_Vector_base.224" = type { %"struct.std::_Vector_base<std::pair<unsigned long, unsigned long>, std::allocator<std::pair<unsigned long, unsigned long>>>::_Vector_impl" }
%"struct.std::_Vector_base<std::pair<unsigned long, unsigned long>, std::allocator<std::pair<unsigned long, unsigned long>>>::_Vector_impl" = type { %"struct.std::_Vector_base<std::pair<unsigned long, unsigned long>, std::allocator<std::pair<unsigned long, unsigned long>>>::_Vector_impl_data" }
%"struct.std::_Vector_base<std::pair<unsigned long, unsigned long>, std::allocator<std::pair<unsigned long, unsigned long>>>::_Vector_impl_data" = type { ptr, ptr, ptr }
%"class.std::vector.228" = type { %"struct.std::_Vector_base.229" }
%"struct.std::_Vector_base.229" = type { %"struct.std::_Vector_base<llvm::StringRef, std::allocator<llvm::StringRef>>::_Vector_impl" }
%"struct.std::_Vector_base<llvm::StringRef, std::allocator<llvm::StringRef>>::_Vector_impl" = type { %"struct.std::_Vector_base<llvm::StringRef, std::allocator<llvm::StringRef>>::_Vector_impl_data" }
%"struct.std::_Vector_base<llvm::StringRef, std::allocator<llvm::StringRef>>::_Vector_impl_data" = type { ptr, ptr, ptr }
%"class.std::vector.233" = type { %"struct.std::_Vector_base.234" }
%"struct.std::_Vector_base.234" = type { %"struct.std::_Vector_base<std::pair<llvm::StringRef, llvm::Comdat::SelectionKind>, std::allocator<std::pair<llvm::StringRef, llvm::Comdat::SelectionKind>>>::_Vector_impl" }
%"struct.std::_Vector_base<std::pair<llvm::StringRef, llvm::Comdat::SelectionKind>, std::allocator<std::pair<llvm::StringRef, llvm::Comdat::SelectionKind>>>::_Vector_impl" = type { %"struct.std::_Vector_base<std::pair<llvm::StringRef, llvm::Comdat::SelectionKind>, std::allocator<std::pair<llvm::StringRef, llvm::Comdat::SelectionKind>>>::_Vector_impl_data" }
%"struct.std::_Vector_base<std::pair<llvm::StringRef, llvm::Comdat::SelectionKind>, std::allocator<std::pair<llvm::StringRef, llvm::Comdat::SelectionKind>>>::_Vector_impl_data" = type { ptr, ptr, ptr }
%"class.llvm::BitcodeModule" = type { %"class.llvm::ArrayRef.75", %"class.llvm::StringRef", %"class.llvm::StringRef", i64, i64 }

; Function Attrs: mustprogress nounwind uwtable
define linkonce_odr hidden { ptr, i64 } @_ZNK4llvm13BitcodeModule19getModuleIdentifierEv(ptr noundef nonnull align 8 dereferenceable(64) %0) #1 comdat align 2 {
  %2 = alloca %"class.llvm::StringRef", align 8
  %3 = alloca ptr, align 8
  store ptr %0, ptr %3, align 8
  %4 = load ptr, ptr %3, align 8
  %5 = getelementptr inbounds nuw %"class.llvm::BitcodeModule", ptr %4, i32 0, i32 1
  call void @llvm.memcpy.p0.p0.i64(ptr align 8 %2, ptr align 8 %5, i64 16, i1 false)
  %6 = load { ptr, i64 }, ptr %2, align 8
  ret { ptr, i64 } %6
}

; Function Attrs: mustprogress nounwind uwtable
define linkonce_odr hidden noundef nonnull align 8 dereferenceable(64) ptr @_ZNKSt6vectorIN4llvm13BitcodeModuleESaIS1_EEixEm(ptr noundef nonnull align 8 dereferenceable(24) %0, i64 noundef %1) #1 comdat align 2 {
  %3 = alloca ptr, align 8
  %4 = alloca i64, align 8
  store ptr %0, ptr %3, align 8
  store i64 %1, ptr %4, align 8
  %5 = load ptr, ptr %3, align 8
  %6 = getelementptr inbounds nuw %"struct.std::_Vector_base.208", ptr %5, i32 0, i32 0
  %7 = getelementptr inbounds nuw %"struct.std::_Vector_base<llvm::BitcodeModule, std::allocator<llvm::BitcodeModule>>::_Vector_impl_data", ptr %6, i32 0, i32 0
  %8 = load ptr, ptr %7, align 8
  %9 = load i64, ptr %4, align 8
  %10 = getelementptr inbounds %"class.llvm::BitcodeModule", ptr %8, i64 %9
  ret ptr %10
}

; Function Attrs: mustprogress nounwind uwtable
define dso_local { ptr, i64 } @_ZNK4llvm3lto9InputFile7getNameEv(ptr noundef nonnull align 8 dereferenceable(192) %0) #1 align 2 {
  %2 = alloca %"class.llvm::StringRef", align 8
  %3 = alloca ptr, align 8
  store ptr %0, ptr %3, align 8
  %4 = load ptr, ptr %3, align 8
  %5 = getelementptr inbounds nuw %"class.llvm::lto::InputFile", ptr %4, i32 0, i32 0
  %6 = call noundef nonnull align 8 dereferenceable(64) ptr @_ZNKSt6vectorIN4llvm13BitcodeModuleESaIS1_EEixEm(ptr noundef nonnull align 8 dereferenceable(24) %5, i64 noundef 0) #2
  %7 = call { ptr, i64 } @_ZNK4llvm13BitcodeModule19getModuleIdentifierEv(ptr noundef nonnull align 8 dereferenceable(64) %6)
  %8 = getelementptr inbounds nuw { ptr, i64 }, ptr %2, i32 0, i32 0
  %9 = extractvalue { ptr, i64 } %7, 0
  store ptr %9, ptr %8, align 8
  %10 = getelementptr inbounds nuw { ptr, i64 }, ptr %2, i32 0, i32 1
  %11 = extractvalue { ptr, i64 } %7, 1
  store i64 %11, ptr %10, align 8
  %12 = load { ptr, i64 }, ptr %2, align 8
  ret { ptr, i64 } %12
}