; Function Attrs: mustprogress nofree norecurse nosync nounwind willreturn memory(read, inaccessiblemem: none) uwtable
define dso_local { ptr, i64 } @_ZNK4llvm3lto9InputFile7getNameEv(ptr noundef nonnull readonly align 8 captures(none) dereferenceable(192) %0) local_unnamed_addr #6 align 2 {
  %2 = load ptr, ptr %0, align 8
  %3 = getelementptr inbounds nuw i8, ptr %2, i64 16
  %.sroa.0.0.copyload.i = load ptr, ptr %3, align 8
  %.sroa.2.0..sroa_idx.i = getelementptr inbounds nuw i8, ptr %2, i64 24
  %.sroa.2.0.copyload.i = load i64, ptr %.sroa.2.0..sroa_idx.i, align 8
  %.fca.0.insert.i = insertvalue { ptr, i64 } poison, ptr %.sroa.0.0.copyload.i, 0
  %.fca.1.insert.i = insertvalue { ptr, i64 } %.fca.0.insert.i, i64 %.sroa.2.0.copyload.i, 1
  ret { ptr, i64 } %.fca.1.insert.i
}